target datalayout = "e-m:e-p270:32:32-p271:32:32-p272:64:64-i64:64-i128:128-f80:128-n8:16:32:64-S128"
target triple = "x86_64-pc-linux-gnu"

%struct.UPVecToUTrie2Context = type { ptr, i32, i32, i32 }

; Function Attrs: mustprogress uwtable
define void @upvec_compactToUTrie2Handler_77(ptr noundef %0, i32 noundef %1, i32 noundef %2, i32 noundef %3, ptr noundef %4, i32 noundef %5, ptr noundef %6) #0 {
  %8 = alloca ptr, align 8
  %9 = alloca i32, align 4
  %10 = alloca i32, align 4
  %11 = alloca i32, align 4
  %12 = alloca ptr, align 8
  %13 = alloca i32, align 4
  %14 = alloca ptr, align 8
  %15 = alloca ptr, align 8
  store ptr %0, ptr %8, align 8, !tbaa !7
  store i32 %1, ptr %9, align 4, !tbaa !3
  store i32 %2, ptr %10, align 4, !tbaa !3
  store i32 %3, ptr %11, align 4, !tbaa !3
  store ptr %4, ptr %12, align 8, !tbaa !13
  store i32 %5, ptr %13, align 4, !tbaa !3
  store ptr %6, ptr %14, align 8, !tbaa !7
  call void @llvm.lifetime.start.p0(i64 8, ptr %15) #9
  %16 = load ptr, ptr %8, align 8, !tbaa !7
  store ptr %16, ptr %15, align 8, !tbaa !34
  %17 = load i32, ptr %9, align 4, !tbaa !3
  %18 = icmp slt i32 %17, 1114112
  br i1 %18, label %19, label %27

19:                                               ; preds = %7
  %20 = load ptr, ptr %15, align 8, !tbaa !34
  %21 = getelementptr inbounds nuw %struct.UPVecToUTrie2Context, ptr %20, i32 0, i32 0
  %22 = load ptr, ptr %21, align 8, !tbaa !31
  %23 = load i32, ptr %9, align 4, !tbaa !3
  %24 = load i32, ptr %10, align 4, !tbaa !3
  %25 = load i32, ptr %11, align 4, !tbaa !3
  %26 = load ptr, ptr %14, align 8, !tbaa !7
  call void @utrie2_setRange32_77(ptr noundef %22, i32 noundef %23, i32 noundef %24, i32 noundef %25, i8 noundef signext 1, ptr noundef %26)
  br label %59

27:                                               ; preds = %7
  %28 = load i32, ptr %9, align 4, !tbaa !3
  switch i32 %28, label %57 [
    i32 1114112, label %29
    i32 1114113, label %33
    i32 2097152, label %37
  ]

29:                                               ; preds = %27
  %30 = load i32, ptr %11, align 4, !tbaa !3
  %31 = load ptr, ptr %15, align 8, !tbaa !34
  %32 = getelementptr inbounds nuw %struct.UPVecToUTrie2Context, ptr %31, i32 0, i32 1
  store i32 %30, ptr %32, align 8, !tbaa !36
  br label %58

33:                                               ; preds = %27
  %34 = load i32, ptr %11, align 4, !tbaa !3
  %35 = load ptr, ptr %15, align 8, !tbaa !34
  %36 = getelementptr inbounds nuw %struct.UPVecToUTrie2Context, ptr %35, i32 0, i32 2
  store i32 %34, ptr %36, align 4, !tbaa !37
  br label %58

37:                                               ; preds = %27
  %38 = load i32, ptr %11, align 4, !tbaa !3
  %39 = load ptr, ptr %15, align 8, !tbaa !34
  %40 = getelementptr inbounds nuw %struct.UPVecToUTrie2Context, ptr %39, i32 0, i32 3
  store i32 %38, ptr %40, align 8, !tbaa !38
  %41 = load i32, ptr %11, align 4, !tbaa !3
  %42 = icmp sgt i32 %41, 65535
  br i1 %42, label %43, label %45

43:                                               ; preds = %37
  %44 = load ptr, ptr %14, align 8, !tbaa !7
  store i32 8, ptr %44, align 4, !tbaa !9
  br label %56

45:                                               ; preds = %37
  %46 = load ptr, ptr %15, align 8, !tbaa !34
  %47 = getelementptr inbounds nuw %struct.UPVecToUTrie2Context, ptr %46, i32 0, i32 1
  %48 = load i32, ptr %47, align 8, !tbaa !36
  %49 = load ptr, ptr %15, align 8, !tbaa !34
  %50 = getelementptr inbounds nuw %struct.UPVecToUTrie2Context, ptr %49, i32 0, i32 2
  %51 = load i32, ptr %50, align 4, !tbaa !37
  %52 = load ptr, ptr %14, align 8, !tbaa !7
  %53 = call ptr @utrie2_open_77(i32 noundef %48, i32 noundef %51, ptr noundef %52)
  %54 = load ptr, ptr %15, align 8, !tbaa !34
  %55 = getelementptr inbounds nuw %struct.UPVecToUTrie2Context, ptr %54, i32 0, i32 0
  store ptr %53, ptr %55, align 8, !tbaa !31
  br label %56

56:                                               ; preds = %45, %43
  br label %58

57:                                               ; preds = %27
  br label %58

58:                                               ; preds = %57, %56, %33, %29
  br label %59

59:                                               ; preds = %58, %19
  call void @llvm.lifetime.end.p0(i64 8, ptr %15) #9
  ret void
}