; Function Attrs: mustprogress uwtable
define void @upvec_compactToUTrie2Handler_77(ptr noundef captures(none) %0, i32 noundef %1, i32 noundef %2, i32 noundef %3, ptr readnone captures(none) %4, i32 %5, ptr noundef %6) #0 {
  %8 = icmp slt i32 %1, 1114112
  br i1 %8, label %9, label %11

9:                                                ; preds = %7
  %10 = load ptr, ptr %0, align 8, !tbaa !26
  tail call void @utrie2_setRange32_77(ptr noundef %10, i32 noundef %1, i32 noundef %2, i32 noundef %3, i8 noundef signext 1, ptr noundef %6)
  br label %26

11:                                               ; preds = %7
  switch i32 %1, label %26 [
    i32 1114112, label %12
    i32 1114113, label %14
    i32 2097152, label %16
  ]

12:                                               ; preds = %11
  %13 = getelementptr inbounds nuw i8, ptr %0, i64 8
  store i32 %3, ptr %13, align 8, !tbaa !29
  br label %26

14:                                               ; preds = %11
  %15 = getelementptr inbounds nuw i8, ptr %0, i64 12
  store i32 %3, ptr %15, align 4, !tbaa !30
  br label %26

16:                                               ; preds = %11
  %17 = getelementptr inbounds nuw i8, ptr %0, i64 16
  store i32 %3, ptr %17, align 8, !tbaa !31
  %18 = icmp sgt i32 %3, 65535
  br i1 %18, label %19, label %20

19:                                               ; preds = %16
  store i32 8, ptr %6, align 4, !tbaa !3
  br label %26

20:                                               ; preds = %16
  %21 = getelementptr inbounds nuw i8, ptr %0, i64 8
  %22 = load i32, ptr %21, align 8, !tbaa !29
  %23 = getelementptr inbounds nuw i8, ptr %0, i64 12
  %24 = load i32, ptr %23, align 4, !tbaa !30
  %25 = tail call ptr @utrie2_open_77(i32 noundef %22, i32 noundef %24, ptr noundef %6)
  store ptr %25, ptr %0, align 8, !tbaa !26
  br label %26

26:                                               ; preds = %12, %14, %20, %19, %11, %9
  ret void
}